target datalayout = "e-m:e-p270:32:32-p271:32:32-p272:64:64-i64:64-i128:128-f80:128-n8:16:32:64-S128"
target triple = "x86_64-pc-linux-gnu"

%struct.pg_conn = type { ptr, ptr, ptr, ptr, ptr, ptr, ptr, ptr, ptr, ptr, ptr, ptr, ptr, ptr, ptr, ptr, ptr, ptr, ptr, ptr, ptr, ptr, ptr, ptr, ptr, ptr, ptr, ptr, ptr, ptr, ptr, ptr, ptr, ptr, ptr, ptr, ptr, ptr, ptr, ptr, ptr, ptr, ptr, i8, ptr, i32, %struct.PGNoticeHooks, ptr, i32, i32, i32, i32, i32, [6 x i8], i8, i8, i32, i8, i8, i32, i8, i32, ptr, ptr, i32, i32, ptr, ptr, ptr, ptr, ptr, i32, %struct.SockAddr, %struct.SockAddr, i32, i32, i8, i8, i8, i8, i8, i8, ptr, i8, i32, [1 x ptr], i8, i8, ptr, ptr, i32, i32, i32, i8, i8, i32, i32, ptr, i8, i64, ptr, i64, ptr, i32, i32, ptr, i32, i8, i32, i32, i32, i32, ptr, %struct.pg_prng_state, ptr, i32, i32, i32, i32, ptr, i32, i32, i32, i32, ptr, i32, ptr, i8, ptr, ptr, ptr, i32, i8, i8, i8, i8, i8, i8, i8, i8, %struct.PQExpBufferData, i32, %struct.PQExpBufferData }
%struct.PGNoticeHooks = type { ptr, ptr, ptr, ptr }
%struct.SockAddr = type { %struct.sockaddr_storage, i32 }
%struct.sockaddr_storage = type { i16, [118 x i8], i64 }
%struct.pg_prng_state = type { i64, i64 }
%struct.PQExpBufferData = type { ptr, i64, i64 }

@.str.1 = private unnamed_addr constant [14 x i8] c"out of memory\00", align 1

; Function Attrs: nounwind uwtable
define i32 @pqGetCopyData3(ptr noundef %0, ptr noundef %1, i32 noundef %2) #0 {
  %4 = alloca i32, align 4
  %5 = alloca ptr, align 8
  %6 = alloca ptr, align 8
  %7 = alloca i32, align 4
  %8 = alloca i32, align 4
  %9 = alloca i32, align 4
  store ptr %0, ptr %5, align 8
  store ptr %1, ptr %6, align 8
  store i32 %2, ptr %7, align 4
  call void @llvm.lifetime.start.p0(i64 4, ptr %8) #11
  br label %10

10:                                               ; preds = %75, %33, %3
  %11 = load ptr, ptr %5, align 8
  %12 = call i32 @getCopyDataMessage(ptr noundef %11)
  store i32 %12, ptr %8, align 4
  %13 = load i32, ptr %8, align 4
  %14 = icmp slt i32 %13, 0
  br i1 %14, label %15, label %17

15:                                               ; preds = %10
  %16 = load i32, ptr %8, align 4
  store i32 %16, ptr %4, align 4
  store i32 1, ptr %9, align 4
  br label %80

17:                                               ; preds = %10
  %18 = load i32, ptr %8, align 4
  %19 = icmp eq i32 %18, 0
  br i1 %19, label %20, label %34

20:                                               ; preds = %17
  %21 = load i32, ptr %7, align 4
  %22 = icmp ne i32 %21, 0
  br i1 %22, label %23, label %24

23:                                               ; preds = %20
  store i32 0, ptr %4, align 4
  store i32 1, ptr %9, align 4
  br label %80

24:                                               ; preds = %20
  %25 = load ptr, ptr %5, align 8
  %26 = call i32 @pqWait(i32 noundef 1, i32 noundef 0, ptr noundef %25)
  %27 = icmp ne i32 %26, 0
  br i1 %27, label %32, label %28

28:                                               ; preds = %24
  %29 = load ptr, ptr %5, align 8
  %30 = call i32 @pqReadData(ptr noundef %29)
  %31 = icmp slt i32 %30, 0
  br i1 %31, label %32, label %33

32:                                               ; preds = %28, %24
  store i32 -2, ptr %4, align 4
  store i32 1, ptr %9, align 4
  br label %80

33:                                               ; preds = %28
  br label %10

34:                                               ; preds = %17
  %35 = load i32, ptr %8, align 4
  %36 = sub i32 %35, 4
  store i32 %36, ptr %8, align 4
  %37 = load i32, ptr %8, align 4
  %38 = icmp sgt i32 %37, 0
  br i1 %38, label %39, label %75

39:                                               ; preds = %34
  %40 = load i32, ptr %8, align 4
  %41 = add i32 %40, 1
  %42 = sext i32 %41 to i64
  %43 = call noalias ptr @malloc(i64 noundef %42) #13
  %44 = load ptr, ptr %6, align 8
  store ptr %43, ptr %44, align 8
  %45 = load ptr, ptr %6, align 8
  %46 = load ptr, ptr %45, align 8
  %47 = icmp eq ptr %46, null
  br i1 %47, label %48, label %50

48:                                               ; preds = %39
  %49 = load ptr, ptr %5, align 8
  call void (ptr, ptr, ...) @libpq_append_conn_error(ptr noundef %49, ptr noundef @.str.1)
  store i32 -2, ptr %4, align 4
  store i32 1, ptr %9, align 4
  br label %80

50:                                               ; preds = %39
  %51 = load ptr, ptr %6, align 8
  %52 = load ptr, ptr %51, align 8
  %53 = load ptr, ptr %5, align 8
  %54 = getelementptr inbounds nuw %struct.pg_conn, ptr %53, i32 0, i32 114
  %55 = load ptr, ptr %54, align 8
  %56 = load ptr, ptr %5, align 8
  %57 = getelementptr inbounds nuw %struct.pg_conn, ptr %56, i32 0, i32 117
  %58 = load i32, ptr %57, align 8
  %59 = sext i32 %58 to i64
  %60 = getelementptr inbounds i8, ptr %55, i64 %59
  %61 = load i32, ptr %8, align 4
  %62 = sext i32 %61 to i64
  call void @llvm.memcpy.p0.p0.i64(ptr align 1 %52, ptr align 1 %60, i64 %62, i1 false)
  %63 = load ptr, ptr %6, align 8
  %64 = load ptr, ptr %63, align 8
  %65 = load i32, ptr %8, align 4
  %66 = sext i32 %65 to i64
  %67 = getelementptr inbounds i8, ptr %64, i64 %66
  store i8 0, ptr %67, align 1
  %68 = load ptr, ptr %5, align 8
  %69 = load ptr, ptr %5, align 8
  %70 = getelementptr inbounds nuw %struct.pg_conn, ptr %69, i32 0, i32 117
  %71 = load i32, ptr %70, align 8
  %72 = load i32, ptr %8, align 4
  %73 = add i32 %71, %72
  call void @pqParseDone(ptr noundef %68, i32 noundef %73)
  %74 = load i32, ptr %8, align 4
  store i32 %74, ptr %4, align 4
  store i32 1, ptr %9, align 4
  br label %80

75:                                               ; preds = %34
  %76 = load ptr, ptr %5, align 8
  %77 = load ptr, ptr %5, align 8
  %78 = getelementptr inbounds nuw %struct.pg_conn, ptr %77, i32 0, i32 117
  %79 = load i32, ptr %78, align 8
  call void @pqParseDone(ptr noundef %76, i32 noundef %79)
  br label %10

80:                                               ; preds = %50, %48, %32, %23, %15
  call void @llvm.lifetime.end.p0(i64 4, ptr %8) #11
  %81 = load i32, ptr %4, align 4
  ret i32 %81
}