; Function Attrs: nounwind uwtable
define range(i32 -2, 2147483644) i32 @pqGetCopyData3(ptr noundef initializes((1016, 1020)) %0, ptr noundef writeonly captures(none) %1, i32 noundef %2) local_unnamed_addr #0 {
  %4 = tail call fastcc i32 @getCopyDataMessage(ptr noundef %0)
  %5 = icmp slt i32 %4, 0
  br i1 %5, label %.loopexit, label %.lr.ph

.lr.ph:                                           ; preds = %3
  %6 = getelementptr inbounds nuw i8, ptr %0, i64 1016
  %.not = icmp eq i32 %2, 0
  br i1 %.not, label %.lr.ph.split.us, label %.lr.ph.split

.lr.ph.split.us:                                  ; preds = %.lr.ph, %.backedge.us
  %7 = phi i32 [ %18, %.backedge.us ], [ %4, %.lr.ph ]
  %8 = icmp eq i32 %7, 0
  br i1 %8, label %13, label %9

9:                                                ; preds = %.lr.ph.split.us
  %10 = icmp samesign ugt i32 %7, 4
  br i1 %10, label %.split.us, label %11

11:                                               ; preds = %9
  %12 = load i32, ptr %6, align 8
  tail call void @pqParseDone(ptr noundef %0, i32 noundef %12) #16
  br label %.backedge.us

13:                                               ; preds = %.lr.ph.split.us
  %14 = tail call i32 @pqWait(i32 noundef 1, i32 noundef 0, ptr noundef %0) #16
  %.not28.us = icmp eq i32 %14, 0
  br i1 %.not28.us, label %15, label %.loopexit

15:                                               ; preds = %13
  %16 = tail call i32 @pqReadData(ptr noundef %0) #16
  %17 = icmp slt i32 %16, 0
  br i1 %17, label %.loopexit, label %.backedge.us

.backedge.us:                                     ; preds = %15, %11
  %18 = tail call fastcc i32 @getCopyDataMessage(ptr noundef %0)
  %19 = icmp slt i32 %18, 0
  br i1 %19, label %.loopexit, label %.lr.ph.split.us

.lr.ph.split:                                     ; preds = %.lr.ph, %.backedge
  %20 = phi i32 [ %40, %.backedge ], [ %4, %.lr.ph ]
  %21 = icmp eq i32 %20, 0
  br i1 %21, label %.loopexit, label %22

22:                                               ; preds = %.lr.ph.split
  %23 = icmp samesign ugt i32 %20, 4
  br i1 %23, label %.split.us, label %.backedge

.split.us:                                        ; preds = %22, %9
  %.us-phi = phi i32 [ %7, %9 ], [ %20, %22 ]
  %24 = add nsw i32 %.us-phi, -3
  %25 = zext nneg i32 %24 to i64
  %26 = tail call noalias ptr @malloc(i64 noundef %25) #19
  store ptr %26, ptr %1, align 8
  %27 = icmp eq ptr %26, null
  br i1 %27, label %28, label %29

28:                                               ; preds = %.split.us
  tail call void (ptr, ptr, ...) @libpq_append_conn_error(ptr noundef %0, ptr noundef nonnull @.str.1) #16
  br label %.loopexit

29:                                               ; preds = %.split.us
  %30 = add nsw i32 %.us-phi, -4
  %31 = getelementptr inbounds nuw i8, ptr %0, i64 1000
  %32 = load ptr, ptr %31, align 8
  %33 = load i32, ptr %6, align 8
  %34 = sext i32 %33 to i64
  %35 = getelementptr inbounds i8, ptr %32, i64 %34
  %36 = zext nneg i32 %30 to i64
  tail call void @llvm.memcpy.p0.p0.i64(ptr nonnull align 1 %26, ptr align 1 %35, i64 %36, i1 false)
  %37 = getelementptr inbounds nuw i8, ptr %26, i64 %36
  store i8 0, ptr %37, align 1
  %38 = add i32 %33, %30
  tail call void @pqParseDone(ptr noundef %0, i32 noundef %38) #16
  br label %.loopexit

.backedge:                                        ; preds = %22
  %39 = load i32, ptr %6, align 8
  tail call void @pqParseDone(ptr noundef %0, i32 noundef %39) #16
  %40 = tail call fastcc i32 @getCopyDataMessage(ptr noundef %0)
  %41 = icmp slt i32 %40, 0
  br i1 %41, label %.loopexit, label %.lr.ph.split

.loopexit:                                        ; preds = %.backedge, %.lr.ph.split, %.backedge.us, %15, %13, %3, %29, %28
  %.0 = phi i32 [ -2, %28 ], [ %30, %29 ], [ %4, %3 ], [ %18, %.backedge.us ], [ -2, %15 ], [ -2, %13 ], [ %40, %.backedge ], [ 0, %.lr.ph.split ]
  ret i32 %.0
}